target datalayout = "e-m:e-p270:32:32-p271:32:32-p272:64:64-i64:64-i128:128-f80:128-n8:16:32:64-S128"
target triple = "x86_64-unknown-linux-gnu"

%"class.icu_75::RuleCharacterIterator" = type <{ ptr, ptr, ptr, ptr, i32, [4 x i8] }>

; Function Attrs: mustprogress nounwind uwtable
define void @_ZN6icu_7521RuleCharacterIteratorC2ERKNS_13UnicodeStringEPKNS_11SymbolTableERNS_13ParsePositionE(ptr noundef nonnull align 8 dereferenceable(36) %this, ptr noundef nonnull align 8 dereferenceable(64) %theText, ptr noundef %theSym, ptr noundef nonnull align 8 dereferenceable(16) %thePos) unnamed_addr #0 align 2 {
entry:
  %this.addr = alloca ptr, align 8
  %theText.addr = alloca ptr, align 8
  %theSym.addr = alloca ptr, align 8
  %thePos.addr = alloca ptr, align 8
  store ptr %this, ptr %this.addr, align 8
  store ptr %theText, ptr %theText.addr, align 8
  store ptr %theSym, ptr %theSym.addr, align 8
  store ptr %thePos, ptr %thePos.addr, align 8
  %this1 = load ptr, ptr %this.addr, align 8
  %text = getelementptr inbounds %"class.icu_75::RuleCharacterIterator", ptr %this1, i32 0, i32 0
  %0 = load ptr, ptr %theText.addr, align 8
  store ptr %0, ptr %text, align 8
  %pos = getelementptr inbounds %"class.icu_75::RuleCharacterIterator", ptr %this1, i32 0, i32 1
  %1 = load ptr, ptr %thePos.addr, align 8
  store ptr %1, ptr %pos, align 8
  %sym = getelementptr inbounds %"class.icu_75::RuleCharacterIterator", ptr %this1, i32 0, i32 2
  %2 = load ptr, ptr %theSym.addr, align 8
  store ptr %2, ptr %sym, align 8
  %buf = getelementptr inbounds %"class.icu_75::RuleCharacterIterator", ptr %this1, i32 0, i32 3
  store ptr null, ptr %buf, align 8
  %bufPos = getelementptr inbounds %"class.icu_75::RuleCharacterIterator", ptr %this1, i32 0, i32 4
  store i32 0, ptr %bufPos, align 8
  ret void
}