; Function Attrs: mustprogress nofree norecurse nosync nounwind willreturn memory(argmem: write) uwtable
define void @_ZN6icu_7521RuleCharacterIteratorC2ERKNS_13UnicodeStringEPKNS_11SymbolTableERNS_13ParsePositionE(ptr nocapture noundef nonnull writeonly align 8 dereferenceable(36) %this, ptr noundef nonnull align 8 dereferenceable(64) %theText, ptr noundef %theSym, ptr noundef nonnull align 8 dereferenceable(16) %thePos) unnamed_addr #0 align 2 {
entry:
  store ptr %theText, ptr %this, align 8
  %pos = getelementptr inbounds i8, ptr %this, i64 8
  store ptr %thePos, ptr %pos, align 8
  %sym = getelementptr inbounds i8, ptr %this, i64 16
  store ptr %theSym, ptr %sym, align 8
  %buf = getelementptr inbounds i8, ptr %this, i64 24
  store ptr null, ptr %buf, align 8
  %bufPos = getelementptr inbounds i8, ptr %this, i64 32
  store i32 0, ptr %bufPos, align 8
  ret void
}